; Function Attrs: mustprogress nofree norecurse nosync nounwind willreturn memory(read, inaccessiblemem: none) uwtable
define hidden noundef float @_ZNK2cv6detail8tracking7feature15CvHaarEvaluator11FeatureHaar6getSumERKNS_3MatENS_5Rect_IiEE(ptr nonnull readnone align 8 captures(none) %0, ptr noundef nonnull readonly align 8 captures(none) dereferenceable(96) %1, i64 %2, i64 %3) local_unnamed_addr #13 align 2 {
  %.sroa.0.0.extract.trunc = trunc i64 %2 to i32
  %.sroa.2.0.extract.shift = lshr i64 %2, 32
  %.sroa.2.0.extract.trunc = trunc nuw i64 %.sroa.2.0.extract.shift to i32
  %.sroa.3.8.extract.trunc = trunc i64 %3 to i32
  %.sroa.5.8.extract.shift = lshr i64 %3, 32
  %.sroa.5.8.extract.trunc = trunc nuw i64 %.sroa.5.8.extract.shift to i32
  %5 = add nsw i32 %.sroa.3.8.extract.trunc, %.sroa.0.0.extract.trunc
  %6 = getelementptr inbounds nuw i8, ptr %1, i64 12
  %7 = load i32, ptr %6, align 4, !tbaa !32
  %8 = add nsw i32 %7, -1
  %.not = icmp slt i32 %5, %8
  %9 = sub nsw i32 %8, %.sroa.0.0.extract.trunc
  %spec.select = select i1 %.not, i32 %.sroa.3.8.extract.trunc, i32 %9
  %10 = add nsw i32 %.sroa.5.8.extract.trunc, %.sroa.2.0.extract.trunc
  %11 = getelementptr inbounds nuw i8, ptr %1, i64 8
  %12 = load i32, ptr %11, align 8, !tbaa !34
  %13 = add nsw i32 %12, -1
  %.not69 = icmp slt i32 %10, %13
  %14 = sub nsw i32 %13, %.sroa.2.0.extract.trunc
  %.065 = select i1 %.not69, i32 %.sroa.5.8.extract.trunc, i32 %14
  %15 = load i32, ptr %1, align 8, !tbaa !105
  %16 = and i32 %15, 3
  %or.cond = icmp eq i32 %16, 0
  br i1 %or.cond, label %17, label %44

17:                                               ; preds = %4
  %18 = add nsw i32 %.065, %.sroa.2.0.extract.trunc
  %19 = add nsw i32 %spec.select, %.sroa.0.0.extract.trunc
  %20 = getelementptr inbounds nuw i8, ptr %1, i64 16
  %21 = load ptr, ptr %20, align 8, !tbaa !37
  %22 = getelementptr inbounds nuw i8, ptr %1, i64 72
  %23 = load ptr, ptr %22, align 8, !tbaa !38
  %24 = load i64, ptr %23, align 8, !tbaa !39
  %25 = sext i32 %18 to i64
  %26 = mul i64 %24, %25
  %27 = getelementptr inbounds nuw i8, ptr %21, i64 %26
  %28 = sext i32 %19 to i64
  %29 = getelementptr inbounds i32, ptr %27, i64 %28
  %30 = load i32, ptr %29, align 4, !tbaa !74
  %31 = ashr i64 %2, 32
  %32 = mul i64 %24, %31
  %33 = getelementptr inbounds nuw i8, ptr %21, i64 %32
  %sext73 = shl i64 %2, 32
  %34 = ashr exact i64 %sext73, 32
  %35 = getelementptr inbounds i32, ptr %33, i64 %34
  %36 = load i32, ptr %35, align 4, !tbaa !74
  %37 = getelementptr inbounds i32, ptr %33, i64 %28
  %38 = load i32, ptr %37, align 4, !tbaa !74
  %39 = getelementptr inbounds i32, ptr %27, i64 %34
  %40 = load i32, ptr %39, align 4, !tbaa !74
  %.neg75 = add i32 %36, %30
  %41 = add i32 %38, %40
  %42 = sub i32 %.neg75, %41
  %43 = sitofp i32 %42 to float
  br label %101

44:                                               ; preds = %4
  %45 = and i32 %15, 7
  switch i32 %45, label %101 [
    i32 6, label %46
    i32 5, label %74
  ]

46:                                               ; preds = %44
  %47 = add nsw i32 %.065, %.sroa.2.0.extract.trunc
  %48 = add nsw i32 %spec.select, %.sroa.0.0.extract.trunc
  %49 = getelementptr inbounds nuw i8, ptr %1, i64 16
  %50 = load ptr, ptr %49, align 8, !tbaa !37
  %51 = getelementptr inbounds nuw i8, ptr %1, i64 72
  %52 = load ptr, ptr %51, align 8, !tbaa !38
  %53 = load i64, ptr %52, align 8, !tbaa !39
  %54 = sext i32 %47 to i64
  %55 = mul i64 %53, %54
  %56 = getelementptr inbounds nuw i8, ptr %50, i64 %55
  %57 = sext i32 %48 to i64
  %58 = getelementptr inbounds double, ptr %56, i64 %57
  %59 = load double, ptr %58, align 8, !tbaa !106
  %60 = ashr i64 %2, 32
  %61 = mul i64 %53, %60
  %62 = getelementptr inbounds nuw i8, ptr %50, i64 %61
  %sext71 = shl i64 %2, 32
  %63 = ashr exact i64 %sext71, 32
  %64 = getelementptr inbounds double, ptr %62, i64 %63
  %65 = load double, ptr %64, align 8, !tbaa !106
  %66 = fadd double %59, %65
  %67 = getelementptr inbounds double, ptr %62, i64 %57
  %68 = load double, ptr %67, align 8, !tbaa !106
  %69 = fsub double %66, %68
  %70 = getelementptr inbounds double, ptr %56, i64 %63
  %71 = load double, ptr %70, align 8, !tbaa !106
  %72 = fsub double %69, %71
  %73 = fptrunc double %72 to float
  br label %101

74:                                               ; preds = %44
  %75 = add nsw i32 %.065, %.sroa.2.0.extract.trunc
  %76 = add nsw i32 %spec.select, %.sroa.0.0.extract.trunc
  %77 = getelementptr inbounds nuw i8, ptr %1, i64 16
  %78 = load ptr, ptr %77, align 8, !tbaa !37
  %79 = getelementptr inbounds nuw i8, ptr %1, i64 72
  %80 = load ptr, ptr %79, align 8, !tbaa !38
  %81 = load i64, ptr %80, align 8, !tbaa !39
  %82 = sext i32 %75 to i64
  %83 = mul i64 %81, %82
  %84 = getelementptr inbounds nuw i8, ptr %78, i64 %83
  %85 = sext i32 %76 to i64
  %86 = getelementptr inbounds float, ptr %84, i64 %85
  %87 = load float, ptr %86, align 4, !tbaa !40
  %88 = ashr i64 %2, 32
  %89 = mul i64 %81, %88
  %90 = getelementptr inbounds nuw i8, ptr %78, i64 %89
  %sext = shl i64 %2, 32
  %91 = ashr exact i64 %sext, 32
  %92 = getelementptr inbounds float, ptr %90, i64 %91
  %93 = load float, ptr %92, align 4, !tbaa !40
  %94 = fadd float %87, %93
  %95 = getelementptr inbounds float, ptr %90, i64 %85
  %96 = load float, ptr %95, align 4, !tbaa !40
  %97 = fsub float %94, %96
  %98 = getelementptr inbounds float, ptr %84, i64 %91
  %99 = load float, ptr %98, align 4, !tbaa !40
  %100 = fsub float %97, %99
  br label %101

101:                                              ; preds = %44, %46, %74, %17
  %.064 = phi float [ %43, %17 ], [ %73, %46 ], [ %100, %74 ], [ 0.000000e+00, %44 ]
  ret float %.064
}